; Function Attrs: mustprogress uwtable
define hidden noundef range(i32 4, 10) i32 @_ZN4smt27scanner11read_symbolEv(ptr noundef nonnull align 8 dereferenceable(1408) %0) local_unnamed_addr #3 align 2 {
  %2 = getelementptr inbounds nuw i8, ptr %0, i64 1368
  %3 = load ptr, ptr %2, align 8, !tbaa !22
  %.not.i = icmp eq ptr %3, null
  br i1 %.not.i, label %_ZN6vectorIcLb0EjE5resetEv.exit.thread, label %6

_ZN6vectorIcLb0EjE5resetEv.exit.thread:           ; preds = %1
  %4 = getelementptr inbounds nuw i8, ptr %0, i64 16
  %5 = load i8, ptr %4, align 8, !tbaa !28
  br label %13

6:                                                ; preds = %1
  %7 = getelementptr inbounds i8, ptr %3, i64 -4
  store i32 0, ptr %7, align 4, !tbaa !23
  %8 = getelementptr inbounds nuw i8, ptr %0, i64 16
  %9 = load i8, ptr %8, align 8, !tbaa !28
  %10 = getelementptr inbounds i8, ptr %3, i64 -8
  %11 = load i32, ptr %10, align 4, !tbaa !23
  %12 = icmp eq i32 %11, 0
  br i1 %12, label %13, label %_ZN6vectorIcLb0EjE9push_backEOc.exit

13:                                               ; preds = %_ZN6vectorIcLb0EjE5resetEv.exit.thread, %6
  %14 = phi i8 [ %5, %_ZN6vectorIcLb0EjE5resetEv.exit.thread ], [ %9, %6 ]
  tail call void @_ZN6vectorIcLb0EjE13expand_vectorEv(ptr noundef nonnull align 8 dereferenceable(8) %2)
  %.pre.i = load ptr, ptr %2, align 8, !tbaa !22
  %.phi.trans.insert.i = getelementptr inbounds i8, ptr %.pre.i, i64 -4
  %.pre2.i = load i32, ptr %.phi.trans.insert.i, align 4, !tbaa !23
  %15 = zext i32 %.pre2.i to i64
  br label %_ZN6vectorIcLb0EjE9push_backEOc.exit

_ZN6vectorIcLb0EjE9push_backEOc.exit:             ; preds = %6, %13
  %16 = phi i8 [ %14, %13 ], [ %9, %6 ]
  %17 = phi i64 [ %15, %13 ], [ 0, %6 ]
  %18 = phi ptr [ %.pre.i, %13 ], [ %3, %6 ]
  %19 = getelementptr inbounds nuw i8, ptr %18, i64 %17
  store i8 %16, ptr %19, align 1, !tbaa !24
  %20 = load ptr, ptr %2, align 8, !tbaa !22
  %21 = getelementptr inbounds i8, ptr %20, i64 -4
  %22 = load i32, ptr %21, align 4, !tbaa !23
  %23 = add i32 %22, 1
  store i32 %23, ptr %21, align 4, !tbaa !23
  tail call void @_ZN4smt27scanner4nextEv(ptr noundef nonnull align 8 dereferenceable(1408) %0)
  %24 = tail call noundef i32 @_ZN4smt27scanner16read_symbol_coreEv(ptr noundef nonnull align 8 dereferenceable(1408) %0)
  ret i32 %24
}